target datalayout = "e-m:e-p270:32:32-p271:32:32-p272:64:64-i64:64-i128:128-f80:128-n8:16:32:64-S128"
target triple = "x86_64-pc-linux-gnu"

%struct.slurm_step_id_msg = type { i64, i32, i32, i32 }
%struct.step_record_t = type { i32, ptr, ptr, ptr, i32, ptr, ptr, i32, i32, i32, i32, i16, i16, ptr, i16, i32, ptr, i32, ptr, ptr, ptr, ptr, ptr, ptr, ptr, ptr, ptr, i64, i16, i64, i16, ptr, i16, ptr, i32, i64, i32, ptr, i32, i32, %struct.slurm_step_id_msg, ptr, ptr, ptr, ptr, i16, i64, i64, ptr, ptr, ptr, ptr, ptr, ptr, ptr, ptr }

; Function Attrs: nounwind uwtable
define internal i32 @_srun_job_complete(ptr noundef %0, ptr noundef %1) #0 {
  %3 = alloca ptr, align 8
  %4 = alloca ptr, align 8
  %5 = alloca ptr, align 8
  store ptr %0, ptr %3, align 8
  store ptr %1, ptr %4, align 8
  call void @llvm.lifetime.start.p0(i64 8, ptr %5) #6
  %6 = load ptr, ptr %3, align 8
  store ptr %6, ptr %5, align 8
  %7 = load ptr, ptr %5, align 8
  %8 = getelementptr inbounds nuw %struct.step_record_t, ptr %7, i32 0, i32 40
  %9 = getelementptr inbounds nuw %struct.slurm_step_id_msg, ptr %8, i32 0, i32 3
  %10 = load i32, ptr %9, align 8
  %11 = icmp ne i32 %10, -5
  br i1 %11, label %12, label %14

12:                                               ; preds = %2
  %13 = load ptr, ptr %5, align 8
  call void @srun_step_complete(ptr noundef %13)
  br label %14

14:                                               ; preds = %12, %2
  call void @llvm.lifetime.end.p0(i64 8, ptr %5) #6
  ret i32 0
}