; Function Attrs: nounwind uwtable
define internal noundef i32 @_srun_job_complete(ptr noundef readonly captures(none) %0, ptr readnone captures(none) %1) #0 {
  %3 = getelementptr inbounds nuw i8, ptr %0, i64 296
  %4 = load i32, ptr %3, align 8
  %.not = icmp eq i32 %4, -5
  br i1 %.not, label %6, label %5

5:                                                ; preds = %2
  tail call void @srun_step_complete(ptr noundef nonnull %0)
  br label %6

6:                                                ; preds = %5, %2
  ret i32 0
}